target datalayout = "e-m:e-p270:32:32-p271:32:32-p272:64:64-i64:64-i128:128-f80:128-n8:16:32:64-S128"
target triple = "x86_64-pc-linux-gnu"

%struct.H5C_log_trace_udata_t = type { ptr, ptr }
%struct.H5AC_cache_config_t = type { i32, i8, i8, i8, [1025 x i8], i8, i8, i64, double, i64, i64, i64, i32, double, double, i8, i64, i32, double, double, i32, double, double, i8, i64, i32, i8, double, i64, i32 }

@H5C_init_g = external global i8, align 1
@H5_libterm_g = external global i8, align 1
@.str = private unnamed_addr constant [106 x i8] c"generated/home/dtcxzyw/WorkSpace/Projects/compilers/llvm-opt-benchmark/bench/hdf5/hdf5/src/H5Clog_trace.c\00", align 1
@H5E_CACHE_g = external global i64, align 8
@.str.3 = private unnamed_addr constant [3 x i8] c"%s\00", align 1
@H5E_LOGGING_g = external global i64, align 8
@.str.11 = private unnamed_addr constant [27 x i8] c"unable to emit log message\00", align 1
@__func__.H5C__trace_write_log_message = private unnamed_addr constant [29 x i8] c"H5C__trace_write_log_message\00", align 1
@.str.12 = private unnamed_addr constant [26 x i8] c"error writing log message\00", align 1
@.str.27 = private unnamed_addr constant [132 x i8] c"H5AC_set_cache_auto_resize_config %d %d %d %d \22%s\22 %d %d %d %f %d %d %ld %d %f %f %d %f %f %d %d %d %f %f %d %d %d %d %f %zu %d %d\0A\00", align 1
@__func__.H5C__trace_write_set_cache_config_log_msg = private unnamed_addr constant [42 x i8] c"H5C__trace_write_set_cache_config_log_msg\00", align 1

; Function Attrs: nounwind uwtable
define internal i32 @H5C__trace_write_log_message(ptr noundef %0) #0 {
  %2 = alloca ptr, align 8
  %3 = alloca i64, align 8
  %4 = alloca i32, align 4
  %5 = alloca i8, align 1
  store ptr %0, ptr %2, align 8, !tbaa !12
  call void @llvm.lifetime.start.p0(i64 8, ptr %3) #8
  call void @llvm.lifetime.start.p0(i64 4, ptr %4) #8
  store i32 0, ptr %4, align 4, !tbaa !10
  call void @llvm.lifetime.start.p0(i64 1, ptr %5) #8
  store i8 0, ptr %5, align 1, !tbaa !14
  %6 = load i8, ptr @H5C_init_g, align 1, !tbaa !14, !range !16, !noundef !17
  %7 = trunc i8 %6 to i1
  br i1 %7, label %12, label %8

8:                                                ; preds = %1
  %9 = load i8, ptr @H5_libterm_g, align 1, !tbaa !14, !range !16, !noundef !17
  %10 = trunc i8 %9 to i1
  %11 = xor i1 %10, true
  br label %12

12:                                               ; preds = %8, %1
  %13 = phi i1 [ true, %1 ], [ %11, %8 ]
  %14 = xor i1 %13, true
  %15 = xor i1 %14, true
  %16 = zext i1 %15 to i32
  %17 = sext i32 %16 to i64
  %18 = call i64 @llvm.expect.i64(i64 %17, i64 1)
  %19 = icmp ne i64 %18, 0
  br i1 %19, label %20, label %61

20:                                               ; preds = %12
  %21 = load ptr, ptr %2, align 8, !tbaa !12
  %22 = getelementptr inbounds nuw %struct.H5C_log_trace_udata_t, ptr %21, i32 0, i32 1
  %23 = load ptr, ptr %22, align 8, !tbaa !24
  %24 = call i64 @strlen(ptr noundef %23) #10
  store i64 %24, ptr %3, align 8, !tbaa !22
  %25 = load i64, ptr %3, align 8, !tbaa !22
  %26 = trunc i64 %25 to i32
  %27 = load ptr, ptr %2, align 8, !tbaa !12
  %28 = getelementptr inbounds nuw %struct.H5C_log_trace_udata_t, ptr %27, i32 0, i32 0
  %29 = load ptr, ptr %28, align 8, !tbaa !27
  %30 = load ptr, ptr %2, align 8, !tbaa !12
  %31 = getelementptr inbounds nuw %struct.H5C_log_trace_udata_t, ptr %30, i32 0, i32 1
  %32 = load ptr, ptr %31, align 8, !tbaa !24
  %33 = call i32 (ptr, ptr, ...) @fprintf(ptr noundef %29, ptr noundef @.str.3, ptr noundef %32) #8
  %34 = icmp ne i32 %26, %33
  br i1 %34, label %35, label %54

35:                                               ; preds = %20
  br label %36

36:                                               ; preds = %35
  br label %37

37:                                               ; preds = %36
  br label %38

38:                                               ; preds = %37
  %39 = load i64, ptr @H5E_CACHE_g, align 8, !tbaa !22
  %40 = load i64, ptr @H5E_LOGGING_g, align 8, !tbaa !22
  %41 = call i32 (ptr, ptr, i32, i64, i64, ptr, ...) @H5E_printf_stack(ptr noundef @.str, ptr noundef @__func__.H5C__trace_write_log_message, i32 noundef 168, i64 noundef %39, i64 noundef %40, ptr noundef @.str.12)
  br label %42

42:                                               ; preds = %38
  br label %43

43:                                               ; preds = %42
  store i8 1, ptr %5, align 1, !tbaa !14
  %44 = load i8, ptr %5, align 1, !tbaa !14, !range !16, !noundef !17
  %45 = trunc i8 %44 to i1
  %46 = zext i1 %45 to i8
  store i8 %46, ptr %5, align 1, !tbaa !14
  br label %47

47:                                               ; preds = %43
  br label %48

48:                                               ; preds = %47
  br label %49

49:                                               ; preds = %48
  store i32 -1, ptr %4, align 4, !tbaa !10
  br label %60

50:                                               ; No predecessors!
  br label %51

51:                                               ; preds = %50
  br label %52

52:                                               ; preds = %51
  br label %53

53:                                               ; preds = %52
  br label %54

54:                                               ; preds = %53, %20
  %55 = load ptr, ptr %2, align 8, !tbaa !12
  %56 = getelementptr inbounds nuw %struct.H5C_log_trace_udata_t, ptr %55, i32 0, i32 1
  %57 = load ptr, ptr %56, align 8, !tbaa !24
  %58 = load i64, ptr %3, align 8, !tbaa !22
  %59 = mul i64 %58, 1
  call void @llvm.memset.p0.i64(ptr align 1 %57, i8 0, i64 %59, i1 false)
  br label %60

60:                                               ; preds = %54, %49
  br label %61

61:                                               ; preds = %60, %12
  %62 = load i32, ptr %4, align 4, !tbaa !10
  call void @llvm.lifetime.end.p0(i64 1, ptr %5) #8
  call void @llvm.lifetime.end.p0(i64 4, ptr %4) #8
  call void @llvm.lifetime.end.p0(i64 8, ptr %3) #8
  ret i32 %62
}

; Function Attrs: nounwind uwtable
define internal i32 @H5C__trace_write_set_cache_config_log_msg(ptr noundef %0, ptr noundef %1, i32 noundef %2) #0 {
  %4 = alloca ptr, align 8
  %5 = alloca ptr, align 8
  %6 = alloca i32, align 4
  %7 = alloca ptr, align 8
  %8 = alloca i32, align 4
  %9 = alloca i8, align 1
  store ptr %0, ptr %4, align 8, !tbaa !28
  store ptr %1, ptr %5, align 8, !tbaa !39
  store i32 %2, ptr %6, align 4, !tbaa !10
  call void @llvm.lifetime.start.p0(i64 8, ptr %7) #8
  %10 = load ptr, ptr %4, align 8, !tbaa !28
  store ptr %10, ptr %7, align 8, !tbaa !12
  call void @llvm.lifetime.start.p0(i64 4, ptr %8) #8
  store i32 0, ptr %8, align 4, !tbaa !10
  call void @llvm.lifetime.start.p0(i64 1, ptr %9) #8
  store i8 0, ptr %9, align 1, !tbaa !14
  %11 = load i8, ptr @H5C_init_g, align 1, !tbaa !14, !range !16, !noundef !17
  %12 = trunc i8 %11 to i1
  br i1 %12, label %17, label %13

13:                                               ; preds = %3
  %14 = load i8, ptr @H5_libterm_g, align 1, !tbaa !14, !range !16, !noundef !17
  %15 = trunc i8 %14 to i1
  %16 = xor i1 %15, true
  br label %17

17:                                               ; preds = %13, %3
  %18 = phi i1 [ true, %3 ], [ %16, %13 ]
  %19 = xor i1 %18, true
  %20 = xor i1 %19, true
  %21 = zext i1 %20 to i32
  %22 = sext i32 %21 to i64
  %23 = call i64 @llvm.expect.i64(i64 %22, i64 1)
  %24 = icmp ne i64 %23, 0
  br i1 %24, label %25, label %166

25:                                               ; preds = %17
  %26 = load ptr, ptr %7, align 8, !tbaa !12
  %27 = getelementptr inbounds nuw %struct.H5C_log_trace_udata_t, ptr %26, i32 0, i32 1
  %28 = load ptr, ptr %27, align 8, !tbaa !24
  %29 = load ptr, ptr %5, align 8, !tbaa !39
  %30 = getelementptr inbounds nuw %struct.H5AC_cache_config_t, ptr %29, i32 0, i32 0
  %31 = load i32, ptr %30, align 8, !tbaa !41
  %32 = load ptr, ptr %5, align 8, !tbaa !39
  %33 = getelementptr inbounds nuw %struct.H5AC_cache_config_t, ptr %32, i32 0, i32 1
  %34 = load i8, ptr %33, align 4, !tbaa !44, !range !16, !noundef !17
  %35 = trunc i8 %34 to i1
  %36 = zext i1 %35 to i32
  %37 = load ptr, ptr %5, align 8, !tbaa !39
  %38 = getelementptr inbounds nuw %struct.H5AC_cache_config_t, ptr %37, i32 0, i32 2
  %39 = load i8, ptr %38, align 1, !tbaa !45, !range !16, !noundef !17
  %40 = trunc i8 %39 to i1
  %41 = zext i1 %40 to i32
  %42 = load ptr, ptr %5, align 8, !tbaa !39
  %43 = getelementptr inbounds nuw %struct.H5AC_cache_config_t, ptr %42, i32 0, i32 3
  %44 = load i8, ptr %43, align 2, !tbaa !46, !range !16, !noundef !17
  %45 = trunc i8 %44 to i1
  %46 = zext i1 %45 to i32
  %47 = load ptr, ptr %5, align 8, !tbaa !39
  %48 = getelementptr inbounds nuw %struct.H5AC_cache_config_t, ptr %47, i32 0, i32 4
  %49 = getelementptr inbounds [1025 x i8], ptr %48, i64 0, i64 0
  %50 = load ptr, ptr %5, align 8, !tbaa !39
  %51 = getelementptr inbounds nuw %struct.H5AC_cache_config_t, ptr %50, i32 0, i32 5
  %52 = load i8, ptr %51, align 8, !tbaa !47, !range !16, !noundef !17
  %53 = trunc i8 %52 to i1
  %54 = zext i1 %53 to i32
  %55 = load ptr, ptr %5, align 8, !tbaa !39
  %56 = getelementptr inbounds nuw %struct.H5AC_cache_config_t, ptr %55, i32 0, i32 6
  %57 = load i8, ptr %56, align 1, !tbaa !48, !range !16, !noundef !17
  %58 = trunc i8 %57 to i1
  %59 = zext i1 %58 to i32
  %60 = load ptr, ptr %5, align 8, !tbaa !39
  %61 = getelementptr inbounds nuw %struct.H5AC_cache_config_t, ptr %60, i32 0, i32 7
  %62 = load i64, ptr %61, align 8, !tbaa !49
  %63 = trunc i64 %62 to i32
  %64 = load ptr, ptr %5, align 8, !tbaa !39
  %65 = getelementptr inbounds nuw %struct.H5AC_cache_config_t, ptr %64, i32 0, i32 8
  %66 = load double, ptr %65, align 8, !tbaa !50
  %67 = load ptr, ptr %5, align 8, !tbaa !39
  %68 = getelementptr inbounds nuw %struct.H5AC_cache_config_t, ptr %67, i32 0, i32 9
  %69 = load i64, ptr %68, align 8, !tbaa !51
  %70 = trunc i64 %69 to i32
  %71 = load ptr, ptr %5, align 8, !tbaa !39
  %72 = getelementptr inbounds nuw %struct.H5AC_cache_config_t, ptr %71, i32 0, i32 10
  %73 = load i64, ptr %72, align 8, !tbaa !52
  %74 = trunc i64 %73 to i32
  %75 = load ptr, ptr %5, align 8, !tbaa !39
  %76 = getelementptr inbounds nuw %struct.H5AC_cache_config_t, ptr %75, i32 0, i32 11
  %77 = load i64, ptr %76, align 8, !tbaa !53
  %78 = load ptr, ptr %5, align 8, !tbaa !39
  %79 = getelementptr inbounds nuw %struct.H5AC_cache_config_t, ptr %78, i32 0, i32 12
  %80 = load i32, ptr %79, align 8, !tbaa !54
  %81 = load ptr, ptr %5, align 8, !tbaa !39
  %82 = getelementptr inbounds nuw %struct.H5AC_cache_config_t, ptr %81, i32 0, i32 13
  %83 = load double, ptr %82, align 8, !tbaa !55
  %84 = load ptr, ptr %5, align 8, !tbaa !39
  %85 = getelementptr inbounds nuw %struct.H5AC_cache_config_t, ptr %84, i32 0, i32 14
  %86 = load double, ptr %85, align 8, !tbaa !56
  %87 = load ptr, ptr %5, align 8, !tbaa !39
  %88 = getelementptr inbounds nuw %struct.H5AC_cache_config_t, ptr %87, i32 0, i32 17
  %89 = load i32, ptr %88, align 8, !tbaa !57
  %90 = load ptr, ptr %5, align 8, !tbaa !39
  %91 = getelementptr inbounds nuw %struct.H5AC_cache_config_t, ptr %90, i32 0, i32 18
  %92 = load double, ptr %91, align 8, !tbaa !58
  %93 = load ptr, ptr %5, align 8, !tbaa !39
  %94 = getelementptr inbounds nuw %struct.H5AC_cache_config_t, ptr %93, i32 0, i32 19
  %95 = load double, ptr %94, align 8, !tbaa !59
  %96 = load ptr, ptr %5, align 8, !tbaa !39
  %97 = getelementptr inbounds nuw %struct.H5AC_cache_config_t, ptr %96, i32 0, i32 15
  %98 = load i8, ptr %97, align 8, !tbaa !60, !range !16, !noundef !17
  %99 = trunc i8 %98 to i1
  %100 = zext i1 %99 to i32
  %101 = load ptr, ptr %5, align 8, !tbaa !39
  %102 = getelementptr inbounds nuw %struct.H5AC_cache_config_t, ptr %101, i32 0, i32 16
  %103 = load i64, ptr %102, align 8, !tbaa !61
  %104 = trunc i64 %103 to i32
  %105 = load ptr, ptr %5, align 8, !tbaa !39
  %106 = getelementptr inbounds nuw %struct.H5AC_cache_config_t, ptr %105, i32 0, i32 20
  %107 = load i32, ptr %106, align 8, !tbaa !62
  %108 = load ptr, ptr %5, align 8, !tbaa !39
  %109 = getelementptr inbounds nuw %struct.H5AC_cache_config_t, ptr %108, i32 0, i32 21
  %110 = load double, ptr %109, align 8, !tbaa !63
  %111 = load ptr, ptr %5, align 8, !tbaa !39
  %112 = getelementptr inbounds nuw %struct.H5AC_cache_config_t, ptr %111, i32 0, i32 22
  %113 = load double, ptr %112, align 8, !tbaa !64
  %114 = load ptr, ptr %5, align 8, !tbaa !39
  %115 = getelementptr inbounds nuw %struct.H5AC_cache_config_t, ptr %114, i32 0, i32 23
  %116 = load i8, ptr %115, align 8, !tbaa !65, !range !16, !noundef !17
  %117 = trunc i8 %116 to i1
  %118 = zext i1 %117 to i32
  %119 = load ptr, ptr %5, align 8, !tbaa !39
  %120 = getelementptr inbounds nuw %struct.H5AC_cache_config_t, ptr %119, i32 0, i32 24
  %121 = load i64, ptr %120, align 8, !tbaa !66
  %122 = trunc i64 %121 to i32
  %123 = load ptr, ptr %5, align 8, !tbaa !39
  %124 = getelementptr inbounds nuw %struct.H5AC_cache_config_t, ptr %123, i32 0, i32 25
  %125 = load i32, ptr %124, align 8, !tbaa !67
  %126 = load ptr, ptr %5, align 8, !tbaa !39
  %127 = getelementptr inbounds nuw %struct.H5AC_cache_config_t, ptr %126, i32 0, i32 26
  %128 = load i8, ptr %127, align 4, !tbaa !68, !range !16, !noundef !17
  %129 = trunc i8 %128 to i1
  %130 = zext i1 %129 to i32
  %131 = load ptr, ptr %5, align 8, !tbaa !39
  %132 = getelementptr inbounds nuw %struct.H5AC_cache_config_t, ptr %131, i32 0, i32 27
  %133 = load double, ptr %132, align 8, !tbaa !69
  %134 = load ptr, ptr %5, align 8, !tbaa !39
  %135 = getelementptr inbounds nuw %struct.H5AC_cache_config_t, ptr %134, i32 0, i32 28
  %136 = load i64, ptr %135, align 8, !tbaa !70
  %137 = load ptr, ptr %5, align 8, !tbaa !39
  %138 = getelementptr inbounds nuw %struct.H5AC_cache_config_t, ptr %137, i32 0, i32 29
  %139 = load i32, ptr %138, align 8, !tbaa !71
  %140 = load i32, ptr %6, align 4, !tbaa !10
  %141 = call i32 (ptr, i64, ptr, ...) @snprintf(ptr noundef %28, i64 noundef 4096, ptr noundef @.str.27, i32 noundef %31, i32 noundef %36, i32 noundef %41, i32 noundef %46, ptr noundef %49, i32 noundef %54, i32 noundef %59, i32 noundef %63, double noundef %66, i32 noundef %70, i32 noundef %74, i64 noundef %77, i32 noundef %80, double noundef %83, double noundef %86, i32 noundef %89, double noundef %92, double noundef %95, i32 noundef %100, i32 noundef %104, i32 noundef %107, double noundef %110, double noundef %113, i32 noundef %118, i32 noundef %122, i32 noundef %125, i32 noundef %130, double noundef %133, i64 noundef %136, i32 noundef %139, i32 noundef %140) #8
  %142 = load ptr, ptr %7, align 8, !tbaa !12
  %143 = call i32 @H5C__trace_write_log_message(ptr noundef %142)
  %144 = icmp slt i32 %143, 0
  br i1 %144, label %145, label %164

145:                                              ; preds = %25
  br label %146

146:                                              ; preds = %145
  br label %147

147:                                              ; preds = %146
  br label %148

148:                                              ; preds = %147
  %149 = load i64, ptr @H5E_CACHE_g, align 8, !tbaa !22
  %150 = load i64, ptr @H5E_LOGGING_g, align 8, !tbaa !22
  %151 = call i32 (ptr, ptr, i32, i64, i64, ptr, ...) @H5E_printf_stack(ptr noundef @.str, ptr noundef @__func__.H5C__trace_write_set_cache_config_log_msg, i32 noundef 869, i64 noundef %149, i64 noundef %150, ptr noundef @.str.11)
  br label %152

152:                                              ; preds = %148
  br label %153

153:                                              ; preds = %152
  store i8 1, ptr %9, align 1, !tbaa !14
  %154 = load i8, ptr %9, align 1, !tbaa !14, !range !16, !noundef !17
  %155 = trunc i8 %154 to i1
  %156 = zext i1 %155 to i8
  store i8 %156, ptr %9, align 1, !tbaa !14
  br label %157

157:                                              ; preds = %153
  br label %158

158:                                              ; preds = %157
  br label %159

159:                                              ; preds = %158
  store i32 -1, ptr %8, align 4, !tbaa !10
  br label %165

160:                                              ; No predecessors!
  br label %161

161:                                              ; preds = %160
  br label %162

162:                                              ; preds = %161
  br label %163

163:                                              ; preds = %162
  br label %164

164:                                              ; preds = %163, %25
  br label %165

165:                                              ; preds = %164, %159
  br label %166

166:                                              ; preds = %165, %17
  %167 = load i32, ptr %8, align 4, !tbaa !10
  call void @llvm.lifetime.end.p0(i64 1, ptr %9) #8
  call void @llvm.lifetime.end.p0(i64 4, ptr %8) #8
  call void @llvm.lifetime.end.p0(i64 8, ptr %7) #8
  ret i32 %167
}