; Function Attrs: nounwind uwtable
define internal range(i32 -1, 1) i32 @H5C__trace_write_set_cache_config_log_msg(ptr noundef readonly captures(none) %0, ptr noundef %1, i32 noundef %2) #0 {
  %4 = load i8, ptr @H5C_init_g, align 1, !tbaa !3, !range !7, !noundef !8
  %5 = trunc nuw i8 %4 to i1
  %6 = load i8, ptr @H5_libterm_g, align 1, !range !7
  %7 = trunc nuw i8 %6 to i1
  %8 = xor i1 %7, true
  %9 = select i1 %5, i1 true, i1 %8
  br i1 %9, label %10, label %H5C__trace_write_log_message.exit.thread, !prof !9

10:                                               ; preds = %3
  %11 = getelementptr inbounds nuw i8, ptr %0, i64 8
  %12 = load ptr, ptr %11, align 8, !tbaa !15
  %13 = load i32, ptr %1, align 8, !tbaa !32
  %14 = getelementptr inbounds nuw i8, ptr %1, i64 4
  %15 = load i8, ptr %14, align 4, !tbaa !35, !range !7, !noundef !8
  %16 = zext nneg i8 %15 to i32
  %17 = getelementptr inbounds nuw i8, ptr %1, i64 5
  %18 = load i8, ptr %17, align 1, !tbaa !36, !range !7, !noundef !8
  %19 = zext nneg i8 %18 to i32
  %20 = getelementptr inbounds nuw i8, ptr %1, i64 6
  %21 = load i8, ptr %20, align 2, !tbaa !37, !range !7, !noundef !8
  %22 = zext nneg i8 %21 to i32
  %23 = getelementptr inbounds nuw i8, ptr %1, i64 7
  %24 = getelementptr inbounds nuw i8, ptr %1, i64 1032
  %25 = load i8, ptr %24, align 8, !tbaa !38, !range !7, !noundef !8
  %26 = zext nneg i8 %25 to i32
  %27 = getelementptr inbounds nuw i8, ptr %1, i64 1033
  %28 = load i8, ptr %27, align 1, !tbaa !39, !range !7, !noundef !8
  %29 = zext nneg i8 %28 to i32
  %30 = getelementptr inbounds nuw i8, ptr %1, i64 1040
  %31 = load i64, ptr %30, align 8, !tbaa !40
  %32 = trunc i64 %31 to i32
  %33 = getelementptr inbounds nuw i8, ptr %1, i64 1048
  %34 = load double, ptr %33, align 8, !tbaa !41
  %35 = getelementptr inbounds nuw i8, ptr %1, i64 1056
  %36 = load i64, ptr %35, align 8, !tbaa !42
  %37 = trunc i64 %36 to i32
  %38 = getelementptr inbounds nuw i8, ptr %1, i64 1064
  %39 = load i64, ptr %38, align 8, !tbaa !43
  %40 = trunc i64 %39 to i32
  %41 = getelementptr inbounds nuw i8, ptr %1, i64 1072
  %42 = load i64, ptr %41, align 8, !tbaa !44
  %43 = getelementptr inbounds nuw i8, ptr %1, i64 1080
  %44 = load i32, ptr %43, align 8, !tbaa !45
  %45 = getelementptr inbounds nuw i8, ptr %1, i64 1088
  %46 = load double, ptr %45, align 8, !tbaa !46
  %47 = getelementptr inbounds nuw i8, ptr %1, i64 1096
  %48 = load double, ptr %47, align 8, !tbaa !47
  %49 = getelementptr inbounds nuw i8, ptr %1, i64 1120
  %50 = load i32, ptr %49, align 8, !tbaa !48
  %51 = getelementptr inbounds nuw i8, ptr %1, i64 1128
  %52 = load double, ptr %51, align 8, !tbaa !49
  %53 = getelementptr inbounds nuw i8, ptr %1, i64 1136
  %54 = load double, ptr %53, align 8, !tbaa !50
  %55 = getelementptr inbounds nuw i8, ptr %1, i64 1104
  %56 = load i8, ptr %55, align 8, !tbaa !51, !range !7, !noundef !8
  %57 = zext nneg i8 %56 to i32
  %58 = getelementptr inbounds nuw i8, ptr %1, i64 1112
  %59 = load i64, ptr %58, align 8, !tbaa !52
  %60 = trunc i64 %59 to i32
  %61 = getelementptr inbounds nuw i8, ptr %1, i64 1144
  %62 = load i32, ptr %61, align 8, !tbaa !53
  %63 = getelementptr inbounds nuw i8, ptr %1, i64 1152
  %64 = load double, ptr %63, align 8, !tbaa !54
  %65 = getelementptr inbounds nuw i8, ptr %1, i64 1160
  %66 = load double, ptr %65, align 8, !tbaa !55
  %67 = getelementptr inbounds nuw i8, ptr %1, i64 1168
  %68 = load i8, ptr %67, align 8, !tbaa !56, !range !7, !noundef !8
  %69 = zext nneg i8 %68 to i32
  %70 = getelementptr inbounds nuw i8, ptr %1, i64 1176
  %71 = load i64, ptr %70, align 8, !tbaa !57
  %72 = trunc i64 %71 to i32
  %73 = getelementptr inbounds nuw i8, ptr %1, i64 1184
  %74 = load i32, ptr %73, align 8, !tbaa !58
  %75 = getelementptr inbounds nuw i8, ptr %1, i64 1188
  %76 = load i8, ptr %75, align 4, !tbaa !59, !range !7, !noundef !8
  %77 = zext nneg i8 %76 to i32
  %78 = getelementptr inbounds nuw i8, ptr %1, i64 1192
  %79 = load double, ptr %78, align 8, !tbaa !60
  %80 = getelementptr inbounds nuw i8, ptr %1, i64 1200
  %81 = load i64, ptr %80, align 8, !tbaa !61
  %82 = getelementptr inbounds nuw i8, ptr %1, i64 1208
  %83 = load i32, ptr %82, align 8, !tbaa !62
  %84 = tail call i32 (ptr, i64, ptr, ...) @snprintf(ptr noundef nonnull dereferenceable(1) %12, i64 noundef 4096, ptr noundef nonnull @.str.27, i32 noundef %13, i32 noundef %16, i32 noundef %19, i32 noundef %22, ptr noundef nonnull %23, i32 noundef %26, i32 noundef %29, i32 noundef %32, double noundef %34, i32 noundef %37, i32 noundef %40, i64 noundef %42, i32 noundef %44, double noundef %46, double noundef %48, i32 noundef %50, double noundef %52, double noundef %54, i32 noundef %57, i32 noundef %60, i32 noundef %62, double noundef %64, double noundef %66, i32 noundef %69, i32 noundef %72, i32 noundef %74, i32 noundef %77, double noundef %79, i64 noundef %81, i32 noundef %83, i32 noundef %2) #8
  %85 = load i8, ptr @H5C_init_g, align 1, !tbaa !3, !range !7, !noundef !8
  %86 = trunc nuw i8 %85 to i1
  %87 = load i8, ptr @H5_libterm_g, align 1, !range !7
  %88 = trunc nuw i8 %87 to i1
  %89 = xor i1 %88, true
  %90 = select i1 %86, i1 true, i1 %89
  br i1 %90, label %91, label %H5C__trace_write_log_message.exit.thread, !prof !9

91:                                               ; preds = %10
  %92 = load ptr, ptr %11, align 8, !tbaa !15
  %93 = tail call i64 @strlen(ptr noundef nonnull dereferenceable(1) %92) #9
  %94 = trunc i64 %93 to i32
  %95 = load ptr, ptr %0, align 8, !tbaa !21
  %96 = tail call i32 (ptr, ptr, ...) @fprintf(ptr noundef %95, ptr noundef nonnull @.str.3, ptr noundef nonnull %92) #8
  %.not.i = icmp eq i32 %96, %94
  br i1 %.not.i, label %97, label %99

97:                                               ; preds = %91
  %98 = load ptr, ptr %11, align 8, !tbaa !15
  tail call void @llvm.memset.p0.i64(ptr align 1 %98, i8 0, i64 %93, i1 false)
  br label %H5C__trace_write_log_message.exit.thread

99:                                               ; preds = %91
  %100 = load i64, ptr @H5E_CACHE_g, align 8, !tbaa !19
  %101 = load i64, ptr @H5E_LOGGING_g, align 8, !tbaa !19
  %102 = tail call i32 (ptr, ptr, i32, i64, i64, ptr, ...) @H5E_printf_stack(ptr noundef nonnull @.str, ptr noundef nonnull @__func__.H5C__trace_write_log_message, i32 noundef 168, i64 noundef %100, i64 noundef %101, ptr noundef nonnull @.str.12) #8
  %103 = load i64, ptr @H5E_CACHE_g, align 8, !tbaa !19
  %104 = load i64, ptr @H5E_LOGGING_g, align 8, !tbaa !19
  %105 = tail call i32 (ptr, ptr, i32, i64, i64, ptr, ...) @H5E_printf_stack(ptr noundef nonnull @.str, ptr noundef nonnull @__func__.H5C__trace_write_set_cache_config_log_msg, i32 noundef 869, i64 noundef %103, i64 noundef %104, ptr noundef nonnull @.str.11) #8
  br label %H5C__trace_write_log_message.exit.thread

H5C__trace_write_log_message.exit.thread:         ; preds = %10, %97, %99, %3
  %.0 = phi i32 [ -1, %99 ], [ 0, %3 ], [ 0, %97 ], [ 0, %10 ]
  ret i32 %.0
}